; ModuleID = '39/568.c'
source_filename = "39/568.c"
target datalayout = "e-m:e-p270:32:32-p271:32:32-p272:64:64-i64:64-f80:128-n8:16:32:64-S128"
target triple = "x86_64-pc-linux-gnu"

%struct.anon = type { [20 x i8], i32, i32, i8, i8, i32 }

@.str = private unnamed_addr constant [3 x i8] c"%d\00", align 1
@.str.1 = private unnamed_addr constant [18 x i8] c"%s %d %d %c %c %d\00", align 1
@stu = common dso_local global [101 x %struct.anon] zeroinitializer, align 16
@.str.2 = private unnamed_addr constant [10 x i8] c"%s\0A%d\0A%d\0A\00", align 1

; Function Attrs: noinline nounwind uwtable
define dso_local void @main() #0 {
  %1 = alloca i32, align 4
  %2 = alloca i32, align 4
  %3 = alloca i32, align 4
  %4 = alloca i32, align 4
  %5 = alloca i32, align 4
  %6 = alloca [101 x i32], align 16
  store i32 0, i32* %3, align 4
  store i32 0, i32* %4, align 4
  store i32 0, i32* %5, align 4
  %7 = bitcast [101 x i32]* %6 to i8*
  call void @llvm.memset.p0i8.i64(i8* align 16 %7, i8 0, i64 404, i1 false)
  %8 = call i32 (i8*, ...) @__isoc99_scanf(i8* getelementptr inbounds ([3 x i8], [3 x i8]* @.str, i64 0, i64 0), i32* %1)
  store i32 0, i32* %2, align 4
  br label %9

9:                                                ; preds = %40, %0
  %10 = load i32, i32* %2, align 4
  %11 = load i32, i32* %1, align 4
  %12 = icmp slt i32 %10, %11
  br i1 %12, label %13, label %43

13:                                               ; preds = %9
  %14 = load i32, i32* %2, align 4
  %15 = sext i32 %14 to i64
  %16 = getelementptr inbounds [101 x %struct.anon], [101 x %struct.anon]* @stu, i64 0, i64 %15
  %17 = getelementptr inbounds %struct.anon, %struct.anon* %16, i32 0, i32 0
  %18 = getelementptr inbounds [20 x i8], [20 x i8]* %17, i64 0, i64 0
  %19 = load i32, i32* %2, align 4
  %20 = sext i32 %19 to i64
  %21 = getelementptr inbounds [101 x %struct.anon], [101 x %struct.anon]* @stu, i64 0, i64 %20
  %22 = getelementptr inbounds %struct.anon, %struct.anon* %21, i32 0, i32 1
  %23 = load i32, i32* %2, align 4
  %24 = sext i32 %23 to i64
  %25 = getelementptr inbounds [101 x %struct.anon], [101 x %struct.anon]* @stu, i64 0, i64 %24
  %26 = getelementptr inbounds %struct.anon, %struct.anon* %25, i32 0, i32 2
  %27 = load i32, i32* %2, align 4
  %28 = sext i32 %27 to i64
  %29 = getelementptr inbounds [101 x %struct.anon], [101 x %struct.anon]* @stu, i64 0, i64 %28
  %30 = getelementptr inbounds %struct.anon, %struct.anon* %29, i32 0, i32 3
  %31 = load i32, i32* %2, align 4
  %32 = sext i32 %31 to i64
  %33 = getelementptr inbounds [101 x %struct.anon], [101 x %struct.anon]* @stu, i64 0, i64 %32
  %34 = getelementptr inbounds %struct.anon, %struct.anon* %33, i32 0, i32 4
  %35 = load i32, i32* %2, align 4
  %36 = sext i32 %35 to i64
  %37 = getelementptr inbounds [101 x %struct.anon], [101 x %struct.anon]* @stu, i64 0, i64 %36
  %38 = getelementptr inbounds %struct.anon, %struct.anon* %37, i32 0, i32 5
  %39 = call i32 (i8*, ...) @__isoc99_scanf(i8* getelementptr inbounds ([18 x i8], [18 x i8]* @.str.1, i64 0, i64 0), i8* %18, i32* %22, i32* %26, i8* %30, i8* %34, i32* %38)
  br label %40

40:                                               ; preds = %13
  %41 = load i32, i32* %2, align 4
  %42 = add nsw i32 %41, 1
  store i32 %42, i32* %2, align 4
  br label %9

43:                                               ; preds = %9
  store i32 0, i32* %2, align 4
  br label %44

44:                                               ; preds = %144, %43
  %45 = load i32, i32* %2, align 4
  %46 = load i32, i32* %1, align 4
  %47 = icmp slt i32 %45, %46
  br i1 %47, label %48, label %147

48:                                               ; preds = %44
  %49 = load i32, i32* %2, align 4
  %50 = sext i32 %49 to i64
  %51 = getelementptr inbounds [101 x %struct.anon], [101 x %struct.anon]* @stu, i64 0, i64 %50
  %52 = getelementptr inbounds %struct.anon, %struct.anon* %51, i32 0, i32 1
  %53 = load i32, i32* %52, align 4
  %54 = icmp sgt i32 %53, 80
  br i1 %54, label %55, label %68

55:                                               ; preds = %48
  %56 = load i32, i32* %2, align 4
  %57 = sext i32 %56 to i64
  %58 = getelementptr inbounds [101 x %struct.anon], [101 x %struct.anon]* @stu, i64 0, i64 %57
  %59 = getelementptr inbounds %struct.anon, %struct.anon* %58, i32 0, i32 5
  %60 = load i32, i32* %59, align 4
  %61 = icmp sgt i32 %60, 0
  br i1 %61, label %62, label %68

62:                                               ; preds = %55
  %63 = load i32, i32* %2, align 4
  %64 = sext i32 %63 to i64
  %65 = getelementptr inbounds [101 x i32], [101 x i32]* %6, i64 0, i64 %64
  %66 = load i32, i32* %65, align 4
  %67 = add nsw i32 %66, 8000
  store i32 %67, i32* %65, align 4
  br label %68

68:                                               ; preds = %62, %55, %48
  %69 = load i32, i32* %2, align 4
  %70 = sext i32 %69 to i64
  %71 = getelementptr inbounds [101 x %struct.anon], [101 x %struct.anon]* @stu, i64 0, i64 %70
  %72 = getelementptr inbounds %struct.anon, %struct.anon* %71, i32 0, i32 1
  %73 = load i32, i32* %72, align 4
  %74 = icmp sgt i32 %73, 85
  br i1 %74, label %75, label %88

75:                                               ; preds = %68
  %76 = load i32, i32* %2, align 4
  %77 = sext i32 %76 to i64
  %78 = getelementptr inbounds [101 x %struct.anon], [101 x %struct.anon]* @stu, i64 0, i64 %77
  %79 = getelementptr inbounds %struct.anon, %struct.anon* %78, i32 0, i32 2
  %80 = load i32, i32* %79, align 4
  %81 = icmp sgt i32 %80, 80
  br i1 %81, label %82, label %88

82:                                               ; preds = %75
  %83 = load i32, i32* %2, align 4
  %84 = sext i32 %83 to i64
  %85 = getelementptr inbounds [101 x i32], [101 x i32]* %6, i64 0, i64 %84
  %86 = load i32, i32* %85, align 4
  %87 = add nsw i32 %86, 4000
  store i32 %87, i32* %85, align 4
  br label %88

88:                                               ; preds = %82, %75, %68
  %89 = load i32, i32* %2, align 4
  %90 = sext i32 %89 to i64
  %91 = getelementptr inbounds [101 x %struct.anon], [101 x %struct.anon]* @stu, i64 0, i64 %90
  %92 = getelementptr inbounds %struct.anon, %struct.anon* %91, i32 0, i32 1
  %93 = load i32, i32* %92, align 4
  %94 = icmp sgt i32 %93, 90
  br i1 %94, label %95, label %101

95:                                               ; preds = %88
  %96 = load i32, i32* %2, align 4
  %97 = sext i32 %96 to i64
  %98 = getelementptr inbounds [101 x i32], [101 x i32]* %6, i64 0, i64 %97
  %99 = load i32, i32* %98, align 4
  %100 = add nsw i32 %99, 2000
  store i32 %100, i32* %98, align 4
  br label %101

101:                                              ; preds = %95, %88
  %102 = load i32, i32* %2, align 4
  %103 = sext i32 %102 to i64
  %104 = getelementptr inbounds [101 x %struct.anon], [101 x %struct.anon]* @stu, i64 0, i64 %103
  %105 = getelementptr inbounds %struct.anon, %struct.anon* %104, i32 0, i32 1
  %106 = load i32, i32* %105, align 4
  %107 = icmp sgt i32 %106, 85
  br i1 %107, label %108, label %122

108:                                              ; preds = %101
  %109 = load i32, i32* %2, align 4
  %110 = sext i32 %109 to i64
  %111 = getelementptr inbounds [101 x %struct.anon], [101 x %struct.anon]* @stu, i64 0, i64 %110
  %112 = getelementptr inbounds %struct.anon, %struct.anon* %111, i32 0, i32 4
  %113 = load i8, i8* %112, align 1
  %114 = sext i8 %113 to i32
  %115 = icmp eq i32 %114, 89
  br i1 %115, label %116, label %122

116:                                              ; preds = %108
  %117 = load i32, i32* %2, align 4
  %118 = sext i32 %117 to i64
  %119 = getelementptr inbounds [101 x i32], [101 x i32]* %6, i64 0, i64 %118
  %120 = load i32, i32* %119, align 4
  %121 = add nsw i32 %120, 1000
  store i32 %121, i32* %119, align 4
  br label %122

122:                                              ; preds = %116, %108, %101
  %123 = load i32, i32* %2, align 4
  %124 = sext i32 %123 to i64
  %125 = getelementptr inbounds [101 x %struct.anon], [101 x %struct.anon]* @stu, i64 0, i64 %124
  %126 = getelementptr inbounds %struct.anon, %struct.anon* %125, i32 0, i32 2
  %127 = load i32, i32* %126, align 4
  %128 = icmp sgt i32 %127, 80
  br i1 %128, label %129, label %143

129:                                              ; preds = %122
  %130 = load i32, i32* %2, align 4
  %131 = sext i32 %130 to i64
  %132 = getelementptr inbounds [101 x %struct.anon], [101 x %struct.anon]* @stu, i64 0, i64 %131
  %133 = getelementptr inbounds %struct.anon, %struct.anon* %132, i32 0, i32 3
  %134 = load i8, i8* %133, align 4
  %135 = sext i8 %134 to i32
  %136 = icmp eq i32 %135, 89
  br i1 %136, label %137, label %143

137:                                              ; preds = %129
  %138 = load i32, i32* %2, align 4
  %139 = sext i32 %138 to i64
  %140 = getelementptr inbounds [101 x i32], [101 x i32]* %6, i64 0, i64 %139
  %141 = load i32, i32* %140, align 4
  %142 = add nsw i32 %141, 850
  store i32 %142, i32* %140, align 4
  br label %143

143:                                              ; preds = %137, %129, %122
  br label %144

144:                                              ; preds = %143
  %145 = load i32, i32* %2, align 4
  %146 = add nsw i32 %145, 1
  store i32 %146, i32* %2, align 4
  br label %44

147:                                              ; preds = %44
  store i32 0, i32* %3, align 4
  store i32 0, i32* %2, align 4
  br label %148

148:                                              ; preds = %172, %147
  %149 = load i32, i32* %2, align 4
  %150 = load i32, i32* %1, align 4
  %151 = icmp slt i32 %149, %150
  br i1 %151, label %152, label %175

152:                                              ; preds = %148
  %153 = load i32, i32* %2, align 4
  %154 = sext i32 %153 to i64
  %155 = getelementptr inbounds [101 x i32], [101 x i32]* %6, i64 0, i64 %154
  %156 = load i32, i32* %155, align 4
  %157 = load i32, i32* %3, align 4
  %158 = icmp sgt i32 %156, %157
  br i1 %158, label %159, label %165

159:                                              ; preds = %152
  %160 = load i32, i32* %2, align 4
  %161 = sext i32 %160 to i64
  %162 = getelementptr inbounds [101 x i32], [101 x i32]* %6, i64 0, i64 %161
  %163 = load i32, i32* %162, align 4
  store i32 %163, i32* %3, align 4
  %164 = load i32, i32* %2, align 4
  store i32 %164, i32* %4, align 4
  br label %165

165:                                              ; preds = %159, %152
  %166 = load i32, i32* %5, align 4
  %167 = load i32, i32* %2, align 4
  %168 = sext i32 %167 to i64
  %169 = getelementptr inbounds [101 x i32], [101 x i32]* %6, i64 0, i64 %168
  %170 = load i32, i32* %169, align 4
  %171 = add nsw i32 %166, %170
  store i32 %171, i32* %5, align 4
  br label %172

172:                                              ; preds = %165
  %173 = load i32, i32* %2, align 4
  %174 = add nsw i32 %173, 1
  store i32 %174, i32* %2, align 4
  br label %148

175:                                              ; preds = %148
  %176 = load i32, i32* %4, align 4
  %177 = sext i32 %176 to i64
  %178 = getelementptr inbounds [101 x %struct.anon], [101 x %struct.anon]* @stu, i64 0, i64 %177
  %179 = getelementptr inbounds %struct.anon, %struct.anon* %178, i32 0, i32 0
  %180 = getelementptr inbounds [20 x i8], [20 x i8]* %179, i64 0, i64 0
  %181 = load i32, i32* %4, align 4
  %182 = sext i32 %181 to i64
  %183 = getelementptr inbounds [101 x i32], [101 x i32]* %6, i64 0, i64 %182
  %184 = load i32, i32* %183, align 4
  %185 = load i32, i32* %5, align 4
  %186 = call i32 (i8*, ...) @printf(i8* getelementptr inbounds ([10 x i8], [10 x i8]* @.str.2, i64 0, i64 0), i8* %180, i32 %184, i32 %185)
  ret void
}

; Function Attrs: argmemonly nounwind willreturn
declare void @llvm.memset.p0i8.i64(i8* nocapture writeonly, i8, i64, i1 immarg) #1

declare dso_local i32 @__isoc99_scanf(i8*, ...) #2

declare dso_local i32 @printf(i8*, ...) #2


!llvm.module.flags = !{!0}
!llvm.ident = !{!1}

!0 = !{i32 1, !"wchar_size", i32 4}
!1 = !{!"clang version 10.0.0-4ubuntu1 "}
